target datalayout = "e-m:e-p270:32:32-p271:32:32-p272:64:64-i64:64-i128:128-f80:128-n8:16:32:64-S128"
target triple = "x86_64-pc-linux-gnu"

%struct._object = type { i64, ptr }
%struct._typeobject = type { %struct.PyVarObject, ptr, i64, i64, ptr, i64, ptr, ptr, ptr, ptr, ptr, ptr, ptr, ptr, ptr, ptr, ptr, ptr, ptr, i64, ptr, ptr, ptr, ptr, i64, ptr, ptr, ptr, ptr, ptr, ptr, ptr, ptr, ptr, i64, ptr, ptr, ptr, ptr, ptr, ptr, ptr, ptr, ptr, ptr, ptr, i32, ptr, ptr }
%struct.PyVarObject = type { %struct._object, i64 }
%class.ArgInfo = type <{ ptr, i8, i8, i8, i8, [4 x i8] }>
%struct.tagPyArrayObject_fields = type { %struct._object, ptr, i32, ptr, ptr, ptr, ptr, i32, ptr, ptr }

@_Py_NoneStruct = external global %struct._object, align 8
@PyFloat_Type = external global %struct._typeobject, align 8
@opencv_ARRAY_API = external global ptr, align 8
@.str.20 = private unnamed_addr constant [39 x i8] c"Argument '%s' must be double, not bool\00", align 1
@PyComplex_Type = external global %struct._typeobject, align 8
@PyBool_Type = external global %struct._typeobject, align 8
@.str.21 = private unnamed_addr constant [51 x i8] c"Argument '%s' can not be safely parsed to 'double'\00", align 1
@.str.22 = private unnamed_addr constant [45 x i8] c"Argument '%s' can not be treated as a double\00", align 1

; Function Attrs: mustprogress nounwind uwtable
define internal noundef i32 @_ZL12PyArray_NDIMPK16tagPyArrayObject(ptr noundef %0) #5 {
  %2 = alloca ptr, align 8
  store ptr %0, ptr %2, align 8
  %3 = load ptr, ptr %2, align 8
  %4 = getelementptr inbounds %struct.tagPyArrayObject_fields, ptr %3, i32 0, i32 2
  %5 = load i32, ptr %4, align 8
  ret i32 %5
}

; Function Attrs: mustprogress nounwind uwtable
define internal noundef i32 @_ZL11_Py_IS_TYPEPK7_objectPK11_typeobject(ptr noundef %0, ptr noundef %1) #5 {
  %3 = alloca ptr, align 8
  %4 = alloca ptr, align 8
  store ptr %0, ptr %3, align 8
  store ptr %1, ptr %4, align 8
  %5 = load ptr, ptr %3, align 8
  %6 = getelementptr inbounds %struct._object, ptr %5, i32 0, i32 1
  %7 = load ptr, ptr %6, align 8
  %8 = load ptr, ptr %4, align 8
  %9 = icmp eq ptr %7, %8
  %10 = zext i1 %9 to i32
  ret i32 %10
}

; Function Attrs: mustprogress nounwind uwtable
define internal noundef i32 @_ZL17PyType_HasFeatureP11_typeobjectm(ptr noundef %0, i64 noundef %1) #5 {
  %3 = alloca ptr, align 8
  %4 = alloca i64, align 8
  %5 = alloca i64, align 8
  store ptr %0, ptr %3, align 8
  store i64 %1, ptr %4, align 8
  %6 = load ptr, ptr %3, align 8
  %7 = getelementptr inbounds %struct._typeobject, ptr %6, i32 0, i32 19
  %8 = load i64, ptr %7, align 8
  store i64 %8, ptr %5, align 8
  %9 = load i64, ptr %5, align 8
  %10 = load i64, ptr %4, align 8
  %11 = and i64 %9, %10
  %12 = icmp ne i64 %11, 0
  %13 = zext i1 %12 to i32
  ret i32 %13
}

; Function Attrs: mustprogress uwtable
define internal noundef i32 @_ZL19_PyObject_TypeCheckP7_objectP11_typeobject(ptr noundef %0, ptr noundef %1) #4 {
  %3 = alloca ptr, align 8
  %4 = alloca ptr, align 8
  store ptr %0, ptr %3, align 8
  store ptr %1, ptr %4, align 8
  %5 = load ptr, ptr %3, align 8
  %6 = load ptr, ptr %4, align 8
  %7 = call noundef i32 @_ZL11_Py_IS_TYPEPK7_objectPK11_typeobject(ptr noundef %5, ptr noundef %6)
  %8 = icmp ne i32 %7, 0
  br i1 %8, label %16, label %9

9:                                                ; preds = %2
  %10 = load ptr, ptr %3, align 8
  %11 = getelementptr inbounds %struct._object, ptr %10, i32 0, i32 1
  %12 = load ptr, ptr %11, align 8
  %13 = load ptr, ptr %4, align 8
  %14 = call i32 @PyType_IsSubtype(ptr noundef %12, ptr noundef %13)
  %15 = icmp ne i32 %14, 0
  br label %16

16:                                               ; preds = %9, %2
  %17 = phi i1 [ true, %2 ], [ %15, %9 ]
  %18 = zext i1 %17 to i32
  ret i32 %18
}

; Function Attrs: mustprogress nounwind uwtable
define linkonce_odr hidden noundef zeroext i1 @_Z6isBoolP7_object(ptr noundef %0) #5 comdat personality ptr @__gxx_personality_v0 {
  %2 = alloca ptr, align 8
  store ptr %0, ptr %2, align 8
  %3 = load ptr, ptr %2, align 8
  %4 = load ptr, ptr @opencv_ARRAY_API, align 8
  %5 = getelementptr inbounds ptr, ptr %4, i64 8
  %6 = load ptr, ptr %5, align 8
  %7 = invoke noundef i32 @_ZL19_PyObject_TypeCheckP7_objectP11_typeobject(ptr noundef %3, ptr noundef %6)
          to label %8 unwind label %17

8:                                                ; preds = %1
  %9 = icmp ne i32 %7, 0
  br i1 %9, label %15, label %10

10:                                               ; preds = %8
  %11 = load ptr, ptr %2, align 8
  %12 = invoke noundef i32 @_ZL11_Py_IS_TYPEPK7_objectPK11_typeobject(ptr noundef %11, ptr noundef @PyBool_Type)
          to label %13 unwind label %17

13:                                               ; preds = %10
  %14 = icmp ne i32 %12, 0
  br label %15

15:                                               ; preds = %13, %8
  %16 = phi i1 [ true, %8 ], [ %14, %13 ]
  ret i1 %16

17:                                               ; preds = %10, %1
  %18 = landingpad { ptr, i32 }
          catch ptr null
  %19 = extractvalue { ptr, i32 } %18, 0
  call void @__clang_call_terminate(ptr %19) #11
  unreachable
}

; Function Attrs: mustprogress uwtable
define hidden noundef zeroext i1 @_Z11pyopencv_toIdEbP7_objectRT_RK7ArgInfo(ptr noundef %0, ptr noundef nonnull align 8 dereferenceable(8) %1, ptr noundef nonnull align 8 dereferenceable(12) %2) #4 {
  %4 = alloca i1, align 1
  %5 = alloca ptr, align 8
  %6 = alloca ptr, align 8
  %7 = alloca ptr, align 8
  %8 = alloca i8, align 1
  store ptr %0, ptr %5, align 8
  store ptr %1, ptr %6, align 8
  store ptr %2, ptr %7, align 8
  %9 = load ptr, ptr %5, align 8
  %10 = icmp ne ptr %9, null
  br i1 %10, label %11, label %14

11:                                               ; preds = %3
  %12 = load ptr, ptr %5, align 8
  %13 = icmp eq ptr %12, @_Py_NoneStruct
  br i1 %13, label %14, label %15

14:                                               ; preds = %11, %3
  store i1 true, ptr %4, align 1
  br label %97

15:                                               ; preds = %11
  %16 = load ptr, ptr %5, align 8
  %17 = call noundef zeroext i1 @_Z6isBoolP7_object(ptr noundef %16) #3
  br i1 %17, label %18, label %23

18:                                               ; preds = %15
  %19 = load ptr, ptr %7, align 8
  %20 = getelementptr inbounds %class.ArgInfo, ptr %19, i32 0, i32 0
  %21 = load ptr, ptr %20, align 8
  %22 = call noundef i32 (ptr, ...) @_Z7failmsgPKcz(ptr noundef @.str.20, ptr noundef %21)
  store i1 false, ptr %4, align 1
  br label %97

23:                                               ; preds = %15
  %24 = load ptr, ptr %5, align 8
  %25 = call noundef i32 @_ZL19_PyObject_TypeCheckP7_objectP11_typeobject(ptr noundef %24, ptr noundef @PyFloat_Type)
  %26 = icmp ne i32 %25, 0
  br i1 %26, label %41, label %27

27:                                               ; preds = %23
  %28 = load ptr, ptr %5, align 8
  %29 = call noundef i32 @_ZL19_PyObject_TypeCheckP7_objectP11_typeobject(ptr noundef %28, ptr noundef @PyComplex_Type)
  %30 = icmp ne i32 %29, 0
  br i1 %30, label %41, label %31

31:                                               ; preds = %27
  %32 = load ptr, ptr %5, align 8
  %33 = getelementptr inbounds %struct._object, ptr %32, i32 0, i32 1
  %34 = load ptr, ptr %33, align 8
  %35 = call noundef i32 @_ZL17PyType_HasFeatureP11_typeobjectm(ptr noundef %34, i64 noundef 16777216)
  %36 = icmp ne i32 %35, 0
  br i1 %36, label %41, label %37

37:                                               ; preds = %31
  %38 = load ptr, ptr %5, align 8
  %39 = call noundef i32 @_ZL11_Py_IS_TYPEPK7_objectPK11_typeobject(ptr noundef %38, ptr noundef @PyBool_Type)
  %40 = icmp ne i32 %39, 0
  br i1 %40, label %41, label %56

41:                                               ; preds = %37, %31, %27, %23
  %42 = load ptr, ptr %5, align 8
  %43 = getelementptr inbounds %struct._object, ptr %42, i32 0, i32 1
  %44 = load ptr, ptr %43, align 8
  %45 = call noundef i32 @_ZL17PyType_HasFeatureP11_typeobjectm(ptr noundef %44, i64 noundef 16777216)
  %46 = icmp ne i32 %45, 0
  br i1 %46, label %47, label %51

47:                                               ; preds = %41
  %48 = load ptr, ptr %5, align 8
  %49 = call double @PyLong_AsDouble(ptr noundef %48)
  %50 = load ptr, ptr %6, align 8
  store double %49, ptr %50, align 8
  br label %55

51:                                               ; preds = %41
  %52 = load ptr, ptr %5, align 8
  %53 = call double @PyFloat_AsDouble(ptr noundef %52)
  %54 = load ptr, ptr %6, align 8
  store double %53, ptr %54, align 8
  br label %55

55:                                               ; preds = %51, %47
  br label %93

56:                                               ; preds = %37
  %57 = load ptr, ptr %5, align 8
  %58 = load ptr, ptr @opencv_ARRAY_API, align 8
  %59 = getelementptr inbounds ptr, ptr %58, i64 10
  %60 = load ptr, ptr %59, align 8
  %61 = call noundef i32 @_ZL19_PyObject_TypeCheckP7_objectP11_typeobject(ptr noundef %57, ptr noundef %60)
  %62 = icmp ne i32 %61, 0
  br i1 %62, label %74, label %63

63:                                               ; preds = %56
  %64 = load ptr, ptr %5, align 8
  %65 = load ptr, ptr @opencv_ARRAY_API, align 8
  %66 = getelementptr inbounds ptr, ptr %65, i64 2
  %67 = load ptr, ptr %66, align 8
  %68 = call noundef i32 @_ZL19_PyObject_TypeCheckP7_objectP11_typeobject(ptr noundef %64, ptr noundef %67)
  %69 = icmp ne i32 %68, 0
  br i1 %69, label %70, label %87

70:                                               ; preds = %63
  %71 = load ptr, ptr %5, align 8
  %72 = call noundef i32 @_ZL12PyArray_NDIMPK16tagPyArrayObject(ptr noundef %71)
  %73 = icmp eq i32 %72, 0
  br i1 %73, label %74, label %87

74:                                               ; preds = %70, %56
  %75 = load ptr, ptr %5, align 8
  %76 = load ptr, ptr %6, align 8
  %77 = call noundef zeroext i1 @_ZN12_GLOBAL__N_116parseNumpyScalarIdEEbP7_objectRT_(ptr noundef %75, ptr noundef nonnull align 8 dereferenceable(8) %76)
  %78 = zext i1 %77 to i8
  store i8 %78, ptr %8, align 1
  %79 = load i8, ptr %8, align 1
  %80 = trunc i8 %79 to i1
  br i1 %80, label %86, label %81

81:                                               ; preds = %74
  %82 = load ptr, ptr %7, align 8
  %83 = getelementptr inbounds %class.ArgInfo, ptr %82, i32 0, i32 0
  %84 = load ptr, ptr %83, align 8
  %85 = call noundef i32 (ptr, ...) @_Z7failmsgPKcz(ptr noundef @.str.21, ptr noundef %84)
  store i1 false, ptr %4, align 1
  br label %97

86:                                               ; preds = %74
  br label %92

87:                                               ; preds = %70, %63
  %88 = load ptr, ptr %7, align 8
  %89 = getelementptr inbounds %class.ArgInfo, ptr %88, i32 0, i32 0
  %90 = load ptr, ptr %89, align 8
  %91 = call noundef i32 (ptr, ...) @_Z7failmsgPKcz(ptr noundef @.str.22, ptr noundef %90)
  store i1 false, ptr %4, align 1
  br label %97

92:                                               ; preds = %86
  br label %93

93:                                               ; preds = %92, %55
  %94 = call ptr @PyErr_Occurred()
  %95 = icmp ne ptr %94, null
  %96 = xor i1 %95, true
  store i1 %96, ptr %4, align 1
  br label %97

97:                                               ; preds = %93, %87, %81, %18, %14
  %98 = load i1, ptr %4, align 1
  ret i1 %98
}